 Lab2a_template_sfun

 Timestamp is 59fa8a8e (Wed Nov 01 20:01:34 2017)

 Preferred load address is 0000000180000000

 Start         Length     Name                   Class
 0001:00000000 000225f4H .text                   CODE
 0001:00022600 00000092H .text$x                 CODE
 0002:00000000 00000460H .idata$5                DATA
 0002:00000460 00000008H .CRT$XCA                DATA
 0002:00000468 00000008H .CRT$XCZ                DATA
 0002:00000470 00000008H .CRT$XIA                DATA
 0002:00000478 00000008H .CRT$XIAA               DATA
 0002:00000480 00000008H .CRT$XIZ                DATA
 0002:00000490 000006b4H .rdata                  DATA
 0002:00000b48 00000008H .rtc$IAA                DATA
 0002:00000b50 00000008H .rtc$IZZ                DATA
 0002:00000b58 00000008H .rtc$TAA                DATA
 0002:00000b60 00000008H .rtc$TZZ                DATA
 0002:00000b68 00000a10H .xdata                  DATA
 0002:00001578 0000008cH .idata$2                DATA
 0002:00001604 00000014H .idata$3                DATA
 0002:00001618 00000460H .idata$4                DATA
 0002:00001a78 00000c0cH .idata$6                DATA
 0002:00002690 00000059H .edata                  DATA
 0003:00000000 00008ce8H .data                   DATA
 0003:00008cf0 000006d8H .bss                    DATA
 0004:00000000 00000d14H .pdata                  DATA

  Address         Publics by Value              Rva+Base               Lib:Object

 0000:00000000       ___safe_se_handler_table   0000000000000000     <absolute>
 0000:00000000       ___safe_se_handler_count   0000000000000000     <absolute>
 0000:00000000       __ImageBase                0000000180000000     <linker-defined>
 0001:00000000       Lab2a_template_initializer 0000000180001000 f   Lab2a_template_sfun.obj
 0001:00000010       Lab2a_template_terminator  0000000180001010 f   Lab2a_template_sfun.obj
 0001:00000020       sf_Lab2a_template_method_dispatcher 0000000180001020 f   Lab2a_template_sfun.obj
 0001:000000d0       sf_Lab2a_template_process_testpoint_info_call 00000001800010d0 f   Lab2a_template_sfun.obj
 0001:00000230       sf_Lab2a_template_process_check_sum_call 0000000180001230 f   Lab2a_template_sfun.obj
 0001:00000680       sf_Lab2a_template_autoinheritance_info 0000000180001680 f   Lab2a_template_sfun.obj
 0001:000008e0       sf_Lab2a_template_get_eml_resolved_functions_info 00000001800018e0 f   Lab2a_template_sfun.obj
 0001:00000ad0       sf_Lab2a_template_third_party_uses_info 0000000180001ad0 f   Lab2a_template_sfun.obj
 0001:00000cc0       sf_Lab2a_template_updateBuildInfo_args_info 0000000180001cc0 f   Lab2a_template_sfun.obj
 0001:00000eb0       Lab2a_template_debug_initialize 0000000180001eb0 f   Lab2a_template_sfun.obj
 0001:00000f30       Lab2a_template_register_exported_symbols 0000000180001f30 f   Lab2a_template_sfun.obj
 0001:00000f40       load_Lab2a_template_optimization_info 0000000180001f40 f   Lab2a_template_sfun.obj
 0001:00000f90       unload_Lab2a_template_optimization_info 0000000180001f90 f   Lab2a_template_sfun.obj
 0001:00000fc0       sf_c1_Lab2a_template_get_eml_resolved_functions_info 0000000180001fc0 f   c1_Lab2a_template.obj
 0001:000041e0       sf_c1_Lab2a_template_get_check_sum 00000001800051e0 f   c1_Lab2a_template.obj
 0001:00004260       sf_c1_Lab2a_template_get_autoinheritance_info 0000000180005260 f   c1_Lab2a_template.obj
 0001:00004ba0       sf_c1_Lab2a_template_third_party_uses_info 0000000180005ba0 f   c1_Lab2a_template.obj
 0001:00004bd0       sf_c1_Lab2a_template_updateBuildInfo_args_info 0000000180005bd0 f   c1_Lab2a_template.obj
 0001:00004c00       sf_internal_get_sim_state_c1_Lab2a_template 0000000180005c00 f   c1_Lab2a_template.obj
 0001:00005030       sf_internal_set_sim_state_c1_Lab2a_template 0000000180006030 f   c1_Lab2a_template.obj
 0001:00005460       c1_Lab2a_template_method_dispatcher 0000000180006460 f   c1_Lab2a_template.obj
 0001:00008540       sf_c2_Lab2a_template_get_eml_resolved_functions_info 0000000180009540 f   c2_Lab2a_template.obj
 0001:0000b760       sf_c2_Lab2a_template_get_check_sum 000000018000c760 f   c2_Lab2a_template.obj
 0001:0000b7e0       sf_c2_Lab2a_template_get_autoinheritance_info 000000018000c7e0 f   c2_Lab2a_template.obj
 0001:0000c120       sf_c2_Lab2a_template_third_party_uses_info 000000018000d120 f   c2_Lab2a_template.obj
 0001:0000c150       sf_c2_Lab2a_template_updateBuildInfo_args_info 000000018000d150 f   c2_Lab2a_template.obj
 0001:0000c180       sf_internal_get_sim_state_c2_Lab2a_template 000000018000d180 f   c2_Lab2a_template.obj
 0001:0000c5b0       sf_internal_set_sim_state_c2_Lab2a_template 000000018000d5b0 f   c2_Lab2a_template.obj
 0001:0000c9e0       c2_Lab2a_template_method_dispatcher 000000018000d9e0 f   c2_Lab2a_template.obj
 0001:0000fac0       sf_c3_Lab2a_template_get_eml_resolved_functions_info 0000000180010ac0 f   c3_Lab2a_template.obj
 0001:00010300       sf_c3_Lab2a_template_get_check_sum 0000000180011300 f   c3_Lab2a_template.obj
 0001:00010380       sf_c3_Lab2a_template_get_autoinheritance_info 0000000180011380 f   c3_Lab2a_template.obj
 0001:000108f0       sf_c3_Lab2a_template_third_party_uses_info 00000001800118f0 f   c3_Lab2a_template.obj
 0001:00010920       sf_c3_Lab2a_template_updateBuildInfo_args_info 0000000180011920 f   c3_Lab2a_template.obj
 0001:00010950       sf_internal_get_sim_state_c3_Lab2a_template 0000000180011950 f   c3_Lab2a_template.obj
 0001:00010ef0       sf_internal_set_sim_state_c3_Lab2a_template 0000000180011ef0 f   c3_Lab2a_template.obj
 0001:000115b0       c3_Lab2a_template_method_dispatcher 00000001800125b0 f   c3_Lab2a_template.obj
 0001:00013ed0       sf_c4_Lab2a_template_get_eml_resolved_functions_info 0000000180014ed0 f   c4_Lab2a_template.obj
 0001:000170f0       sf_c4_Lab2a_template_get_check_sum 00000001800180f0 f   c4_Lab2a_template.obj
 0001:00017170       sf_c4_Lab2a_template_get_autoinheritance_info 0000000180018170 f   c4_Lab2a_template.obj
 0001:00017ab0       sf_c4_Lab2a_template_third_party_uses_info 0000000180018ab0 f   c4_Lab2a_template.obj
 0001:00017ae0       sf_c4_Lab2a_template_updateBuildInfo_args_info 0000000180018ae0 f   c4_Lab2a_template.obj
 0001:00017b10       sf_internal_get_sim_state_c4_Lab2a_template 0000000180018b10 f   c4_Lab2a_template.obj
 0001:00017f40       sf_internal_set_sim_state_c4_Lab2a_template 0000000180018f40 f   c4_Lab2a_template.obj
 0001:00018370       c4_Lab2a_template_method_dispatcher 0000000180019370 f   c4_Lab2a_template.obj
 0001:0001b440       sf_process_check_sum_call  000000018001c440 f   Lab2a_template_sfun_registry.obj
 0001:0001b490       sf_process_testpoint_info_call 000000018001c490 f   Lab2a_template_sfun_registry.obj
 0001:0001b4e0       sf_process_autoinheritance_call 000000018001c4e0 f   Lab2a_template_sfun_registry.obj
 0001:0001b680       sf_process_get_third_party_uses_info_call 000000018001c680 f   Lab2a_template_sfun_registry.obj
 0001:0001b820       sf_process_get_updateBuildInfo_args_info_call 000000018001c820 f   Lab2a_template_sfun_registry.obj
 0001:0001b9c0       sf_process_get_eml_resolved_functions_info_call 000000018001c9c0 f   Lab2a_template_sfun_registry.obj
 0001:0001bb40       sf_mex_unlock_call         000000018001cb40 f   Lab2a_template_sfun_registry.obj
 0001:0001bbf0       sf_machine_global_initializer_called 000000018001cbf0 f   Lab2a_template_sfun_registry.obj
 0001:0001bc20       sf_machine_global_method_dispatcher 000000018001cc20 f   Lab2a_template_sfun_registry.obj
 0001:0001bc80       sf_machine_global_terminator 000000018001cc80 f   Lab2a_template_sfun_registry.obj
 0001:0001bcd0       sf_register_machine_exported_symbols 000000018001ccd0 f   Lab2a_template_sfun_registry.obj
 0001:0001bcf0       callCustomFcn              000000018001ccf0 f   Lab2a_template_sfun_registry.obj
 0001:0001bd00       sf_machine_global_initializer 000000018001cd00 f   Lab2a_template_sfun_registry.obj
 0001:0001bd80       mdlGetSimState             000000018001cd80 f   Lab2a_template_sfun_registry.obj
 0001:0001be00       mdlSetSimState             000000018001ce00 f   Lab2a_template_sfun_registry.obj
 0001:0001be40       _ssSetStateAbsTol          000000018001ce40 f   Lab2a_template_sfun_registry.obj
 0001:0001bf20       _ssGetAbsTol               000000018001cf20 f   Lab2a_template_sfun_registry.obj
 0001:0001bf90       _ssSetInputPortMatrixDimensions 000000018001cf90 f   Lab2a_template_sfun_registry.obj
 0001:0001c0a0       _ssSetOutputPortMatrixDimensions 000000018001d0a0 f   Lab2a_template_sfun_registry.obj
 0001:0001c1b0       _ssSetInputPortVectorDimension 000000018001d1b0 f   Lab2a_template_sfun_registry.obj
 0001:0001c280       _ssSetOutputPortVectorDimension 000000018001d280 f   Lab2a_template_sfun_registry.obj
 0001:0001c350       ssIsRunTimeParamTunable    000000018001d350 f   Lab2a_template_sfun_registry.obj
 0001:0001c3c0       ssGetSFuncBlockHandle      000000018001d3c0 f   Lab2a_template_sfun_registry.obj
 0001:0001c430       _ssGetCurrentInputPortWidth 000000018001d430 f   Lab2a_template_sfun_registry.obj
 0001:0001c550       _ssGetCurrentOutputPortWidth 000000018001d550 f   Lab2a_template_sfun_registry.obj
 0001:0001c670       _ssGetCallSystemNumFcnCallDestinations 000000018001d670 f   Lab2a_template_sfun_registry.obj
 0001:0001c6e0       ssWarning                  000000018001d6e0 f   Lab2a_template_sfun_registry.obj
 0001:0001c7f0       ssGetIsZeroCrossControlDisabled 000000018001d7f0 f   Lab2a_template_sfun_registry.obj
 0001:0001c860       ssSetIsInputPortUsedForContZcSignal 000000018001d860 f   Lab2a_template_sfun_registry.obj
 0001:0001c8d0       ssSetZcSignalIsZcElementDisc 000000018001d8d0 f   Lab2a_template_sfun_registry.obj
 0001:0001c980       ssSetZcSignalName          000000018001d980 f   Lab2a_template_sfun_registry.obj
 0001:0001c9f0       ssSetZcSignalWidth         000000018001d9f0 f   Lab2a_template_sfun_registry.obj
 0001:0001ca60       ssSetZcSignalZcEventType   000000018001da60 f   Lab2a_template_sfun_registry.obj
 0001:0001cad0       ssSetZcSignalType          000000018001dad0 f   Lab2a_template_sfun_registry.obj
 0001:0001cb40       ssSetZcSignalZcTol         000000018001db40 f   Lab2a_template_sfun_registry.obj
 0001:0001cbb0       ssSetZcSignalNeedsEventNotification 000000018001dbb0 f   Lab2a_template_sfun_registry.obj
 0001:0001cc20       ssCreateAndAddZcSignalInfo 000000018001dc20 f   Lab2a_template_sfun_registry.obj
 0001:0001cc90       ssCloneAndAddZcSignalInfo  000000018001dc90 f   Lab2a_template_sfun_registry.obj
 0001:0001cd00       ssGetNumZcSignals          000000018001dd00 f   Lab2a_template_sfun_registry.obj
 0001:0001cd70       ssGetZcSignalVector        000000018001dd70 f   Lab2a_template_sfun_registry.obj
 0001:0001cde0       ssGetZcSignalZcEvents      000000018001dde0 f   Lab2a_template_sfun_registry.obj
 0001:0001ce50       ssGetZcSignalName          000000018001de50 f   Lab2a_template_sfun_registry.obj
 0001:0001cec0       ssGetZcSignalWidth         000000018001dec0 f   Lab2a_template_sfun_registry.obj
 0001:0001cf30       ssGetZcSignalZcEventType   000000018001df30 f   Lab2a_template_sfun_registry.obj
 0001:0001cfa0       ssGetZcSignalType          000000018001dfa0 f   Lab2a_template_sfun_registry.obj
 0001:0001d010       ssGetZcSignalZcTol         000000018001e010 f   Lab2a_template_sfun_registry.obj
 0001:0001d090       ssGetZcSignalNeedsEventNotification 000000018001e090 f   Lab2a_template_sfun_registry.obj
 0001:0001d100       ssGetZcSignalIsZcElementDisc 000000018001e100 f   Lab2a_template_sfun_registry.obj
 0001:0001d1a0       ssGetIsInputPortElementContinuous 000000018001e1a0 f   Lab2a_template_sfun_registry.obj
 0001:0001d240       _ssGetInputPortSignalPtrsFcn 000000018001e240 f   Lab2a_template_sfun_registry.obj
 0001:0001d500       _ssGetInputPortSignalFcn   000000018001e500 f   Lab2a_template_sfun_registry.obj
 0001:0001d720       _ssSetInputPortDirectFeedThroughFcn 000000018001e720 f   Lab2a_template_sfun_registry.obj
 0001:0001d880       _ssSetInputPortReusableFcn 000000018001e880 f   Lab2a_template_sfun_registry.obj
 0001:0001d970       _ssSetOutputPortReusableFcn 000000018001e970 f   Lab2a_template_sfun_registry.obj
 0001:0001da50       ssGetDTypeIdFromMxArray    000000018001ea50 f   Lab2a_template_sfun_registry.obj
 0001:0001db70       ssWriteRTWStr              000000018001eb70 f   Lab2a_template_sfun_registry.obj
 0001:0001dbd0       ssWriteRTWMxVectParam      000000018001ebd0 f   Lab2a_template_sfun_registry.obj
 0001:0001dc30       ssWriteRTWMx2dMatParam     000000018001ec30 f   Lab2a_template_sfun_registry.obj
 0001:0001dcb0       ssWriteRTWNameValuePair    000000018001ecb0 f   Lab2a_template_sfun_registry.obj
 0001:0001e1a0       ssWriteRTWParameters       000000018001f1a0 f   Lab2a_template_sfun_registry.obj
 0001:0001e7a0       ssWriteRTWParamSettings    000000018001f7a0 f   Lab2a_template_sfun_registry.obj
 0001:0001ee70       ssWriteRTWWorkVect         000000018001fe70 f   Lab2a_template_sfun_registry.obj
 0001:0001f370       mexFunction                0000000180020370 f   Lab2a_template_sfun_registry.obj
 0001:00021820       ProcessMexSfunctionEveryCall 0000000180022820 f   Lab2a_template_sfun_registry.obj
 0001:000219a2       sf_debug_set_machine_data_thresholds 00000001800229a2 f   sf_runtime:sf_runtime.dll
 0001:000219a8       sf_debug_set_machine_event_thresholds 00000001800229a8 f   sf_runtime:sf_runtime.dll
 0001:000219ae       sf_debug_initialize_machine 00000001800229ae f   sf_runtime:sf_runtime.dll
 0001:000219b4       sf_load_rtw_optimization_info 00000001800229b4 f   sf_runtime:sf_runtime.dll
 0001:000219ba       sf_mex_emlrtNameCapturePostProcessR2012a 00000001800229ba f   sf_runtime:sf_runtime.dll
 0001:000219c0       sf_mex_assign              00000001800229c0 f   sf_runtime:sf_runtime.dll
 0001:000219c6       sf_mex_createstruct        00000001800229c6 f   sf_runtime:sf_runtime.dll
 0001:000219cc       sf_mex_destroy             00000001800229cc f   sf_runtime:sf_runtime.dll
 0001:000219d2       sf_mex_duplicatearraysafe  00000001800229d2 f   sf_runtime:sf_runtime.dll
 0001:000219d8       sf_mex_createcellmatrix    00000001800229d8 f   sf_runtime:sf_runtime.dll
 0001:000219de       sf_mex_addfield            00000001800229de f   sf_runtime:sf_runtime.dll
 0001:000219e4       sf_mex_create              00000001800229e4 f   sf_runtime:sf_runtime.dll
 0001:000219ea       sf_mex_error_message       00000001800229ea f   sf_runtime:sf_runtime.dll
 0001:000219f0       sf_mex_call_matlab         00000001800229f0 f   sf_runtime:sf_runtime.dll
 0001:000219f6       sf_mex_setcell             00000001800229f6 f   sf_runtime:sf_runtime.dll
 0001:000219fc       sf_mex_decode_encoded_mx_struct_array 00000001800229fc f   sf_runtime:sf_runtime.dll
 0001:00021a02       sf_mex_getcell             0000000180022a02 f   sf_runtime:sf_runtime.dll
 0001:00021a08       sf_mex_dup                 0000000180022a08 f   sf_runtime:sf_runtime.dll
 0001:00021a0e       sf_mex_import              0000000180022a0e f   sf_runtime:sf_runtime.dll
 0001:00021a14       sf_set_rtw_dwork_info      0000000180022a14 f   sf_runtime:sf_runtime.dll
 0001:00021a1a       sf_mark_chart_reusable_outputs 0000000180022a1a f   sf_runtime:sf_runtime.dll
 0001:00021a20       sf_mark_chart_expressionable_inputs 0000000180022a20 f   sf_runtime:sf_runtime.dll
 0001:00021a26       sf_update_buildInfo        0000000180022a26 f   sf_runtime:sf_runtime.dll
 0001:00021a2c       sf_rtw_info_uint_prop      0000000180022a2c f   sf_runtime:sf_runtime.dll
 0001:00021a32       sf_is_chart_inlinable      0000000180022a32 f   sf_runtime:sf_runtime.dll
 0001:00021a38       sim_mode_is_external       0000000180022a38 f   sf_runtime:sf_runtime.dll
 0001:00021a3e       sim_mode_is_rtw_gen        0000000180022a3e f   sf_runtime:sf_runtime.dll
 0001:00021a44       sf_debug_reset_current_state_configuration 0000000180022a44 f   sf_runtime:sf_runtime.dll
 0001:00021a4a       sf_debug_set_instance_data_value_ptr 0000000180022a4a f   sf_runtime:sf_runtime.dll
 0001:00021a50       sf_debug_set_chart_data_compiled_props 0000000180022a50 f   sf_runtime:sf_runtime.dll
 0001:00021a56       cv_eml_init_if             0000000180022a56 f   sf_runtime:sf_runtime.dll
 0001:00021a5c       cv_eml_init_fcn            0000000180022a5c f   sf_runtime:sf_runtime.dll
 0001:00021a62       cv_eml_init_script         0000000180022a62 f   sf_runtime:sf_runtime.dll
 0001:00021a68       sf_debug_cv_init_trans     0000000180022a68 f   sf_runtime:sf_runtime.dll
 0001:00021a6e       sf_debug_cv_init_state     0000000180022a6e f   sf_runtime:sf_runtime.dll
 0001:00021a74       sf_debug_cv_init_chart     0000000180022a74 f   sf_runtime:sf_runtime.dll
 0001:00021a7a       sf_debug_set_chart_decomposition 0000000180022a7a f   sf_runtime:sf_runtime.dll
 0001:00021a80       sf_debug_set_chart_substate_count 0000000180022a80 f   sf_runtime:sf_runtime.dll
 0001:00021a86       sf_debug_set_chart_state_info 0000000180022a86 f   sf_runtime:sf_runtime.dll
 0001:00021a8c       sf_debug_set_chart_data_props 0000000180022a8c f   sf_runtime:sf_runtime.dll
 0001:00021a92       sf_debug_set_chart_event_thresholds 0000000180022a92 f   sf_runtime:sf_runtime.dll
 0001:00021a98       sf_debug_set_chart_disable_implicit_casting 0000000180022a98 f   sf_runtime:sf_runtime.dll
 0001:00021a9e       sf_debug_initialize_chart  0000000180022a9e f   sf_runtime:sf_runtime.dll
 0001:00021aa4       sf_get_time                0000000180022aa4 f   sf_runtime:sf_runtime.dll
 0001:00021aaa       sf_debug_check_for_state_inconsistency 0000000180022aaa f   sf_runtime:sf_runtime.dll
 0001:00021ab0       sf_debug_symbol_scope_pop  0000000180022ab0 f   sf_runtime:sf_runtime.dll
 0001:00021ab6       sf_debug_eml_data_array_bounds_error_check 0000000180022ab6 f   sf_runtime:sf_runtime.dll
 0001:00021abc       sf_debug_integer_check     0000000180022abc f   sf_runtime:sf_runtime.dll
 0001:00021ac2       eml_debug_line_call        0000000180022ac2 f   sf_runtime:sf_runtime.dll
 0001:00021ac8       cv_eml_eval                0000000180022ac8 f   sf_runtime:sf_runtime.dll
 0001:00021ace       sf_debug_symbol_scope_add_eml 0000000180022ace f   sf_runtime:sf_runtime.dll
 0001:00021ad4       sf_debug_symbol_scope_add_eml_importable 0000000180022ad4 f   sf_runtime:sf_runtime.dll
 0001:00021ada       sf_debug_symbol_scope_push_eml 0000000180022ada f   sf_runtime:sf_runtime.dll
 0001:00021ae0       sf_debug_data_range_wrapper 0000000180022ae0 f   sf_runtime:sf_runtime.dll
 0001:00021ae6       sf_debug_call              0000000180022ae6 f   sf_runtime:sf_runtime.dll
 0001:00021aec       sf_debug_symbol_scope_push 0000000180022aec f   sf_runtime:sf_runtime.dll
 0001:00021af2       sf_clear_rtw_identifier    0000000180022af2 f   sf_runtime:sf_runtime.dll
 0001:00021af8       sf_debug_terminate         0000000180022af8 f   sf_runtime:sf_runtime.dll
 0001:00021afe       sf_debug_create_debug_instance_struct 0000000180022afe f   sf_runtime:sf_runtime.dll
 0001:00021b04       sf_debug_api               0000000180022b04 f   sf_runtime:sf_runtime.dll
 0001:00021b0a       callMdlMethodAndReportError 0000000180022b0a f   sf_runtime:sf_runtime.dll
 0001:00021b10       call_sf_machine_global_method_dispatcher 0000000180022b10 f   sf_runtime:sf_runtime.dll
 0001:00021b16       sf_clear_error_manager_info 0000000180022b16 f   sf_runtime:sf_runtime.dll
 0001:00021b1c       sf_mex_error_direct_call   0000000180022b1c f   sf_runtime:sf_runtime.dll
 0001:00021b22       mxCreateDoubleMatrix_730   0000000180022b22 f   libmx:libmx.dll
 0001:00021b28       mxGetScalar                0000000180022b28 f   libmx:libmx.dll
 0001:00021b2e       mxGetString_730            0000000180022b2e f   libmx:libmx.dll
 0001:00021b34       mxIsChar                   0000000180022b34 f   libmx:libmx.dll
 0001:00021b3a       mxGetPr                    0000000180022b3a f   libmx:libmx.dll
 0001:00021b40       mxDestroyArray             0000000180022b40 f   libmx:libmx.dll
 0001:00021b46       mxDuplicateArray           0000000180022b46 f   libmx:libmx.dll
 0001:00021b4c       mxCreateDoubleScalar       0000000180022b4c f   libmx:libmx.dll
 0001:00021b52       mxSetField_730             0000000180022b52 f   libmx:libmx.dll
 0001:00021b58       mxCreateString             0000000180022b58 f   libmx:libmx.dll
 0001:00021b5e       mxCreateStructMatrix_730   0000000180022b5e f   libmx:libmx.dll
 0001:00021b64       mxCreateCellMatrix_730     0000000180022b64 f   libmx:libmx.dll
 0001:00021b6a       mxIsEmpty                  0000000180022b6a f   libmx:libmx.dll
 0001:00021b70       mxGetClassID               0000000180022b70 f   libmx:libmx.dll
 0001:00021b76       mxIsNumeric                0000000180022b76 f   libmx:libmx.dll
 0001:00021b7c       mxIsComplex                0000000180022b7c f   libmx:libmx.dll
 0001:00021b82       mxGetN                     0000000180022b82 f   libmx:libmx.dll
 0001:00021b88       mxGetM                     0000000180022b88 f   libmx:libmx.dll
 0001:00021b8e       mxCalloc                   0000000180022b8e f   libmx:libmx.dll
 0001:00021b94       mexMakeArrayPersistent     0000000180022b94 f   libmex:libmex.dll
 0001:00021b9a       mexUnlock                  0000000180022b9a f   libmex:libmex.dll
 0001:00021ba0       mexIsLocked                0000000180022ba0 f   libmex:libmex.dll
 0001:00021ba6       mexWarnMsgTxt              0000000180022ba6 f   libmex:libmex.dll
 0001:00021bac       mexCallMATLAB              0000000180022bac f   libmex:libmex.dll
 0001:00021bb2       mexErrMsgTxt               0000000180022bb2 f   libmex:libmex.dll
 0001:00021bb8       mexLock                    0000000180022bb8 f   libmex:libmex.dll
 0001:00021bbe       utMalloc                   0000000180022bbe f   libut:libut.dll
 0001:00021bc4       utFree                     0000000180022bc4 f   libut:libut.dll
 0001:00021bca       muDoubleScalarFloor        0000000180022bca f   libmwmathutil:libmwmathutil.dll
 0001:00021bd0       muDoubleScalarMax          0000000180022bd0 f   libmwmathutil:libmwmathutil.dll
 0001:00021bd6       muDoubleScalarAbs          0000000180022bd6 f   libmwmathutil:libmwmathutil.dll
 0001:00021bdc       __GSHandlerCheckCommon     0000000180022bdc f   MSVCRT:gshandler.obj
 0001:00021c40       __GSHandlerCheck           0000000180022c40 f   MSVCRT:gshandler.obj
 0001:00021c5e       strcmp                     0000000180022c5e f   MSVCRT:MSVCR100.dll
 0001:00021c80       __security_check_cookie    0000000180022c80 f   MSVCRT:amdsecgs.obj
 0001:00021ca0       strlen                     0000000180022ca0 f   MSVCRT:MSVCR100.dll
 0001:00021ca6       memset                     0000000180022ca6 f   MSVCRT:MSVCR100.dll
 0001:00021cac       free                       0000000180022cac f   MSVCRT:MSVCR100.dll
 0001:00021cb2       sprintf                    0000000180022cb2 f   MSVCRT:MSVCR100.dll
 0001:00021cb8       malloc                     0000000180022cb8 f   MSVCRT:MSVCR100.dll
 0001:00021cbe       strcat                     0000000180022cbe f   MSVCRT:MSVCR100.dll
 0001:00021cc4       memcpy                     0000000180022cc4 f   MSVCRT:MSVCR100.dll
 0001:00021ccc       NtCurrentTeb               0000000180022ccc f i MSVCRT:crtdll.obj
 0001:00021d38       _CRT_INIT                  0000000180022d38 f   MSVCRT:crtdll.obj
 0001:000220d0       _DllMainCRTStartup         00000001800230d0 f   MSVCRT:crtdll.obj
 0001:00022110       __report_gsfailure         0000000180023110 f   MSVCRT:gs_report.obj
 0001:0002225c       __clean_type_info_names    000000018002325c f   MSVCRT:tncleanup.obj
 0001:00022268       _onexit                    0000000180023268 f   MSVCRT:atonexit.obj
 0001:00022318       atexit                     0000000180023318 f   MSVCRT:atonexit.obj
 0001:00022330       _RTC_Initialize            0000000180023330 f   MSVCRT:_initsect_.obj
 0001:00022368       _RTC_Terminate             0000000180023368 f   MSVCRT:_initsect_.obj
 0001:000223a0       _malloc_crt                00000001800233a0 f   MSVCRT:MSVCR100.dll
 0001:000223b0       _ValidateImageBase         00000001800233b0 f   MSVCRT:pesect.obj
 0001:000223e0       _FindPESection             00000001800233e0 f   MSVCRT:pesect.obj
 0001:00022430       _IsNonwritableInCurrentImage 0000000180023430 f   MSVCRT:pesect.obj
 0001:00022472       _initterm                  0000000180023472 f   MSVCRT:MSVCR100.dll
 0001:00022478       _initterm_e                0000000180023478 f   MSVCRT:MSVCR100.dll
 0001:0002247e       _encoded_null              000000018002347e f   MSVCRT:MSVCR100.dll
 0001:00022484       _amsg_exit                 0000000180023484 f   MSVCRT:MSVCR100.dll
 0001:0002248a       __C_specific_handler       000000018002348a f   MSVCRT:MSVCR100.dll
 0001:00022490       __CppXcptFilter            0000000180023490 f   MSVCRT:MSVCR100.dll
 0001:00022498       DllMain                    0000000180023498 f   MSVCRT:dllmain.obj
 0001:000224bc       __security_init_cookie     00000001800234bc f   MSVCRT:gs_support.obj
 0001:00022570       __crt_debugger_hook        0000000180023570 f   MSVCRT:MSVCR100.dll
 0001:00022576       __clean_type_info_names_internal 0000000180023576 f   MSVCRT:MSVCR100.dll
 0001:0002257c       _unlock                    000000018002357c f   MSVCRT:MSVCR100.dll
 0001:00022582       __dllonexit                0000000180023582 f   MSVCRT:MSVCR100.dll
 0001:00022588       _lock                      0000000180023588 f   MSVCRT:MSVCR100.dll
 0001:0002258e       EncodePointer              000000018002358e f   kernel32:KERNEL32.dll
 0001:00022594       DecodePointer              0000000180023594 f   kernel32:KERNEL32.dll
 0001:0002259a       Sleep                      000000018002359a f   kernel32:KERNEL32.dll
 0001:000225a0       TerminateProcess           00000001800235a0 f   kernel32:KERNEL32.dll
 0001:000225a6       GetCurrentProcess          00000001800235a6 f   kernel32:KERNEL32.dll
 0001:000225ac       UnhandledExceptionFilter   00000001800235ac f   kernel32:KERNEL32.dll
 0001:000225b2       SetUnhandledExceptionFilter 00000001800235b2 f   kernel32:KERNEL32.dll
 0001:000225b8       IsDebuggerPresent          00000001800235b8 f   kernel32:KERNEL32.dll
 0001:000225be       RtlVirtualUnwind           00000001800235be f   kernel32:KERNEL32.dll
 0001:000225c4       RtlLookupFunctionEntry     00000001800235c4 f   kernel32:KERNEL32.dll
 0001:000225ca       RtlCaptureContext          00000001800235ca f   kernel32:KERNEL32.dll
 0001:000225d0       DisableThreadLibraryCalls  00000001800235d0 f   kernel32:KERNEL32.dll
 0001:000225d6       QueryPerformanceCounter    00000001800235d6 f   kernel32:KERNEL32.dll
 0001:000225dc       GetTickCount               00000001800235dc f   kernel32:KERNEL32.dll
 0001:000225e2       GetCurrentThreadId         00000001800235e2 f   kernel32:KERNEL32.dll
 0001:000225e8       GetCurrentProcessId        00000001800235e8 f   kernel32:KERNEL32.dll
 0001:000225ee       GetSystemTimeAsFileTime    00000001800235ee f   kernel32:KERNEL32.dll
 0002:00000000       __imp_GetSystemTimeAsFileTime 0000000180024000     kernel32:KERNEL32.dll
 0002:00000008       __imp_GetCurrentProcessId  0000000180024008     kernel32:KERNEL32.dll
 0002:00000010       __imp_GetCurrentThreadId   0000000180024010     kernel32:KERNEL32.dll
 0002:00000018       __imp_GetTickCount         0000000180024018     kernel32:KERNEL32.dll
 0002:00000020       __imp_QueryPerformanceCounter 0000000180024020     kernel32:KERNEL32.dll
 0002:00000028       __imp_DisableThreadLibraryCalls 0000000180024028     kernel32:KERNEL32.dll
 0002:00000030       __imp_RtlCaptureContext    0000000180024030     kernel32:KERNEL32.dll
 0002:00000038       __imp_RtlLookupFunctionEntry 0000000180024038     kernel32:KERNEL32.dll
 0002:00000040       __imp_RtlVirtualUnwind     0000000180024040     kernel32:KERNEL32.dll
 0002:00000048       __imp_IsDebuggerPresent    0000000180024048     kernel32:KERNEL32.dll
 0002:00000050       __imp_SetUnhandledExceptionFilter 0000000180024050     kernel32:KERNEL32.dll
 0002:00000058       __imp_UnhandledExceptionFilter 0000000180024058     kernel32:KERNEL32.dll
 0002:00000060       __imp_GetCurrentProcess    0000000180024060     kernel32:KERNEL32.dll
 0002:00000068       __imp_TerminateProcess     0000000180024068     kernel32:KERNEL32.dll
 0002:00000070       __imp_Sleep                0000000180024070     kernel32:KERNEL32.dll
 0002:00000078       __imp_DecodePointer        0000000180024078     kernel32:KERNEL32.dll
 0002:00000080       __imp_EncodePointer        0000000180024080     kernel32:KERNEL32.dll
 0002:00000088       \177KERNEL32_NULL_THUNK_DATA 0000000180024088     kernel32:KERNEL32.dll
 0002:00000090       __imp__onexit              0000000180024090     MSVCRT:MSVCR100.dll
 0002:00000098       __imp__lock                0000000180024098     MSVCRT:MSVCR100.dll
 0002:000000a0       __imp___dllonexit          00000001800240a0     MSVCRT:MSVCR100.dll
 0002:000000a8       __imp__unlock              00000001800240a8     MSVCRT:MSVCR100.dll
 0002:000000b0       __imp___clean_type_info_names_internal 00000001800240b0     MSVCRT:MSVCR100.dll
 0002:000000b8       __imp___crt_debugger_hook  00000001800240b8     MSVCRT:MSVCR100.dll
 0002:000000c0       __imp___CppXcptFilter      00000001800240c0     MSVCRT:MSVCR100.dll
 0002:000000c8       __imp___C_specific_handler 00000001800240c8     MSVCRT:MSVCR100.dll
 0002:000000d0       __imp__amsg_exit           00000001800240d0     MSVCRT:MSVCR100.dll
 0002:000000d8       __imp__encoded_null        00000001800240d8     MSVCRT:MSVCR100.dll
 0002:000000e0       __imp__initterm_e          00000001800240e0     MSVCRT:MSVCR100.dll
 0002:000000e8       __imp__initterm            00000001800240e8     MSVCRT:MSVCR100.dll
 0002:000000f0       __imp__malloc_crt          00000001800240f0     MSVCRT:MSVCR100.dll
 0002:000000f8       __imp_memcpy               00000001800240f8     MSVCRT:MSVCR100.dll
 0002:00000100       __imp_strcat               0000000180024100     MSVCRT:MSVCR100.dll
 0002:00000108       __imp_malloc               0000000180024108     MSVCRT:MSVCR100.dll
 0002:00000110       __imp_sprintf              0000000180024110     MSVCRT:MSVCR100.dll
 0002:00000118       __imp_free                 0000000180024118     MSVCRT:MSVCR100.dll
 0002:00000120       __imp_memset               0000000180024120     MSVCRT:MSVCR100.dll
 0002:00000128       __imp_strlen               0000000180024128     MSVCRT:MSVCR100.dll
 0002:00000130       __imp_strcmp               0000000180024130     MSVCRT:MSVCR100.dll
 0002:00000138       \177MSVCR100_NULL_THUNK_DATA 0000000180024138     MSVCRT:MSVCR100.dll
 0002:00000140       __imp_mexErrMsgTxt         0000000180024140     libmex:libmex.dll
 0002:00000148       __imp_mexUnlock            0000000180024148     libmex:libmex.dll
 0002:00000150       __imp_mexIsLocked          0000000180024150     libmex:libmex.dll
 0002:00000158       __imp_mexWarnMsgTxt        0000000180024158     libmex:libmex.dll
 0002:00000160       __imp_mexLock              0000000180024160     libmex:libmex.dll
 0002:00000168       __imp_mexMakeArrayPersistent 0000000180024168     libmex:libmex.dll
 0002:00000170       __imp_mexCallMATLAB        0000000180024170     libmex:libmex.dll
 0002:00000178       \177libmex_NULL_THUNK_DATA 0000000180024178     libmex:libmex.dll
 0002:00000180       __imp_muDoubleScalarMax    0000000180024180     libmwmathutil:libmwmathutil.dll
 0002:00000188       __imp_muDoubleScalarAbs    0000000180024188     libmwmathutil:libmwmathutil.dll
 0002:00000190       __imp_muDoubleScalarFloor  0000000180024190     libmwmathutil:libmwmathutil.dll
 0002:00000198       \177libmwmathutil_NULL_THUNK_DATA 0000000180024198     libmwmathutil:libmwmathutil.dll
 0002:000001a0       __imp_mxCalloc             00000001800241a0     libmx:libmx.dll
 0002:000001a8       __imp_mxGetM               00000001800241a8     libmx:libmx.dll
 0002:000001b0       __imp_mxGetN               00000001800241b0     libmx:libmx.dll
 0002:000001b8       __imp_mxIsComplex          00000001800241b8     libmx:libmx.dll
 0002:000001c0       __imp_mxIsNumeric          00000001800241c0     libmx:libmx.dll
 0002:000001c8       __imp_mxGetClassID         00000001800241c8     libmx:libmx.dll
 0002:000001d0       __imp_mxIsEmpty            00000001800241d0     libmx:libmx.dll
 0002:000001d8       __imp_mxCreateCellMatrix_730 00000001800241d8     libmx:libmx.dll
 0002:000001e0       __imp_mxCreateStructMatrix_730 00000001800241e0     libmx:libmx.dll
 0002:000001e8       __imp_mxCreateString       00000001800241e8     libmx:libmx.dll
 0002:000001f0       __imp_mxSetField_730       00000001800241f0     libmx:libmx.dll
 0002:000001f8       __imp_mxCreateDoubleScalar 00000001800241f8     libmx:libmx.dll
 0002:00000200       __imp_mxCreateDoubleMatrix_730 0000000180024200     libmx:libmx.dll
 0002:00000208       __imp_mxGetScalar          0000000180024208     libmx:libmx.dll
 0002:00000210       __imp_mxGetString_730      0000000180024210     libmx:libmx.dll
 0002:00000218       __imp_mxIsChar             0000000180024218     libmx:libmx.dll
 0002:00000220       __imp_mxGetPr              0000000180024220     libmx:libmx.dll
 0002:00000228       __imp_mxDestroyArray       0000000180024228     libmx:libmx.dll
 0002:00000230       __imp_mxDuplicateArray     0000000180024230     libmx:libmx.dll
 0002:00000238       \177libmx_NULL_THUNK_DATA  0000000180024238     libmx:libmx.dll
 0002:00000240       __imp_utMalloc             0000000180024240     libut:libut.dll
 0002:00000248       __imp_utFree               0000000180024248     libut:libut.dll
 0002:00000250       \177libut_NULL_THUNK_DATA  0000000180024250     libut:libut.dll
 0002:00000258       __imp_call_sf_machine_global_method_dispatcher 0000000180024258     sf_runtime:sf_runtime.dll
 0002:00000260       __imp_callMdlMethodAndReportError 0000000180024260     sf_runtime:sf_runtime.dll
 0002:00000268       __imp_sf_debug_api         0000000180024268     sf_runtime:sf_runtime.dll
 0002:00000270       __imp_sf_debug_create_debug_instance_struct 0000000180024270     sf_runtime:sf_runtime.dll
 0002:00000278       __imp_sf_debug_terminate   0000000180024278     sf_runtime:sf_runtime.dll
 0002:00000280       __imp_sf_clear_rtw_identifier 0000000180024280     sf_runtime:sf_runtime.dll
 0002:00000288       __imp_sf_debug_symbol_scope_push 0000000180024288     sf_runtime:sf_runtime.dll
 0002:00000290       __imp_sf_debug_call        0000000180024290     sf_runtime:sf_runtime.dll
 0002:00000298       __imp_sf_clear_error_manager_info 0000000180024298     sf_runtime:sf_runtime.dll
 0002:000002a0       __imp_sf_debug_symbol_scope_push_eml 00000001800242a0     sf_runtime:sf_runtime.dll
 0002:000002a8       __imp_sf_debug_symbol_scope_add_eml_importable 00000001800242a8     sf_runtime:sf_runtime.dll
 0002:000002b0       __imp_sf_debug_symbol_scope_add_eml 00000001800242b0     sf_runtime:sf_runtime.dll
 0002:000002b8       __imp_cv_eml_eval          00000001800242b8     sf_runtime:sf_runtime.dll
 0002:000002c0       __imp_eml_debug_line_call  00000001800242c0     sf_runtime:sf_runtime.dll
 0002:000002c8       __imp_sf_debug_integer_check 00000001800242c8     sf_runtime:sf_runtime.dll
 0002:000002d0       __imp_sf_debug_eml_data_array_bounds_error_check 00000001800242d0     sf_runtime:sf_runtime.dll
 0002:000002d8       __imp_sf_debug_symbol_scope_pop 00000001800242d8     sf_runtime:sf_runtime.dll
 0002:000002e0       __imp_sf_debug_check_for_state_inconsistency 00000001800242e0     sf_runtime:sf_runtime.dll
 0002:000002e8       __imp_sf_mex_error_direct_call 00000001800242e8     sf_runtime:sf_runtime.dll
 0002:000002f0       __imp_sf_debug_data_range_wrapper 00000001800242f0     sf_runtime:sf_runtime.dll
 0002:000002f8       __imp_sf_get_time          00000001800242f8     sf_runtime:sf_runtime.dll
 0002:00000300       __imp_sf_debug_initialize_chart 0000000180024300     sf_runtime:sf_runtime.dll
 0002:00000308       __imp_sf_debug_set_chart_disable_implicit_casting 0000000180024308     sf_runtime:sf_runtime.dll
 0002:00000310       __imp_sf_debug_set_chart_event_thresholds 0000000180024310     sf_runtime:sf_runtime.dll
 0002:00000318       __imp_sf_debug_set_chart_data_props 0000000180024318     sf_runtime:sf_runtime.dll
 0002:00000320       __imp_sf_debug_set_chart_state_info 0000000180024320     sf_runtime:sf_runtime.dll
 0002:00000328       __imp_sf_debug_set_chart_substate_count 0000000180024328     sf_runtime:sf_runtime.dll
 0002:00000330       __imp_sf_debug_set_chart_decomposition 0000000180024330     sf_runtime:sf_runtime.dll
 0002:00000338       __imp_sf_debug_cv_init_chart 0000000180024338     sf_runtime:sf_runtime.dll
 0002:00000340       __imp_sf_debug_cv_init_state 0000000180024340     sf_runtime:sf_runtime.dll
 0002:00000348       __imp_sf_debug_cv_init_trans 0000000180024348     sf_runtime:sf_runtime.dll
 0002:00000350       __imp_cv_eml_init_script   0000000180024350     sf_runtime:sf_runtime.dll
 0002:00000358       __imp_cv_eml_init_fcn      0000000180024358     sf_runtime:sf_runtime.dll
 0002:00000360       __imp_cv_eml_init_if       0000000180024360     sf_runtime:sf_runtime.dll
 0002:00000368       __imp_sf_debug_set_chart_data_compiled_props 0000000180024368     sf_runtime:sf_runtime.dll
 0002:00000370       __imp_sf_debug_set_instance_data_value_ptr 0000000180024370     sf_runtime:sf_runtime.dll
 0002:00000378       __imp_sf_debug_reset_current_state_configuration 0000000180024378     sf_runtime:sf_runtime.dll
 0002:00000380       __imp_sim_mode_is_rtw_gen  0000000180024380     sf_runtime:sf_runtime.dll
 0002:00000388       __imp_sim_mode_is_external 0000000180024388     sf_runtime:sf_runtime.dll
 0002:00000390       __imp_sf_is_chart_inlinable 0000000180024390     sf_runtime:sf_runtime.dll
 0002:00000398       __imp_sf_rtw_info_uint_prop 0000000180024398     sf_runtime:sf_runtime.dll
 0002:000003a0       __imp_sf_update_buildInfo  00000001800243a0     sf_runtime:sf_runtime.dll
 0002:000003a8       __imp_sf_mark_chart_expressionable_inputs 00000001800243a8     sf_runtime:sf_runtime.dll
 0002:000003b0       __imp_sf_mark_chart_reusable_outputs 00000001800243b0     sf_runtime:sf_runtime.dll
 0002:000003b8       __imp_sf_set_rtw_dwork_info 00000001800243b8     sf_runtime:sf_runtime.dll
 0002:000003c0       __imp_sf_mex_import        00000001800243c0     sf_runtime:sf_runtime.dll
 0002:000003c8       __imp_sf_mex_dup           00000001800243c8     sf_runtime:sf_runtime.dll
 0002:000003d0       __imp_sf_mex_getcell       00000001800243d0     sf_runtime:sf_runtime.dll
 0002:000003d8       __imp_sf_mex_decode_encoded_mx_struct_array 00000001800243d8     sf_runtime:sf_runtime.dll
 0002:000003e0       __imp_sf_mex_setcell       00000001800243e0     sf_runtime:sf_runtime.dll
 0002:000003e8       __imp_sf_mex_call_matlab   00000001800243e8     sf_runtime:sf_runtime.dll
 0002:000003f0       __imp_sf_mex_error_message 00000001800243f0     sf_runtime:sf_runtime.dll
 0002:000003f8       __imp_sf_mex_create        00000001800243f8     sf_runtime:sf_runtime.dll
 0002:00000400       __imp_sf_mex_addfield      0000000180024400     sf_runtime:sf_runtime.dll
 0002:00000408       __imp_sf_mex_createcellmatrix 0000000180024408     sf_runtime:sf_runtime.dll
 0002:00000410       __imp_sf_mex_duplicatearraysafe 0000000180024410     sf_runtime:sf_runtime.dll
 0002:00000418       __imp_sf_mex_destroy       0000000180024418     sf_runtime:sf_runtime.dll
 0002:00000420       __imp_sf_mex_createstruct  0000000180024420     sf_runtime:sf_runtime.dll
 0002:00000428       __imp_sf_mex_assign        0000000180024428     sf_runtime:sf_runtime.dll
 0002:00000430       __imp_sf_mex_emlrtNameCapturePostProcessR2012a 0000000180024430     sf_runtime:sf_runtime.dll
 0002:00000438       __imp_sf_load_rtw_optimization_info 0000000180024438     sf_runtime:sf_runtime.dll
 0002:00000440       __imp_sf_debug_initialize_machine 0000000180024440     sf_runtime:sf_runtime.dll
 0002:00000448       __imp_sf_debug_set_machine_event_thresholds 0000000180024448     sf_runtime:sf_runtime.dll
 0002:00000450       __imp_sf_debug_set_machine_data_thresholds 0000000180024450     sf_runtime:sf_runtime.dll
 0002:00000458       \177sf_runtime_NULL_THUNK_DATA 0000000180024458     sf_runtime:sf_runtime.dll
 0002:00000460       __xc_a                     0000000180024460     MSVCRT:cinitexe.obj
 0002:00000468       __xc_z                     0000000180024468     MSVCRT:cinitexe.obj
 0002:00000470       __xi_a                     0000000180024470     MSVCRT:cinitexe.obj
 0002:00000480       __xi_z                     0000000180024480     MSVCRT:cinitexe.obj
 0002:00000490       __real@41ef237d8dc00000    0000000180024490     Lab2a_template_sfun.obj
 0002:00000498       __real@41e0674c88600000    0000000180024498     Lab2a_template_sfun.obj
 0002:000004a0       __real@41b04f17d3000000    00000001800244a0     Lab2a_template_sfun.obj
 0002:000004a8       __real@41dae1c68a800000    00000001800244a8     Lab2a_template_sfun.obj
 0002:000004b0       __real@41ad4b2baa000000    00000001800244b0     Lab2a_template_sfun.obj
 0002:000004b8       __real@41e4f54984000000    00000001800244b8     Lab2a_template_sfun.obj
 0002:000004c0       __real@41e2ce78c3a00000    00000001800244c0     Lab2a_template_sfun.obj
 0002:000004c8       __real@41e6fa90b7000000    00000001800244c8     Lab2a_template_sfun.obj
 0002:000004d0       __real@41e3378e24400000    00000001800244d0     Lab2a_template_sfun.obj
 0002:000004d8       __real@41e43e895c400000    00000001800244d8     Lab2a_template_sfun.obj
 0002:000004e0       __real@41a61dd2a0000000    00000001800244e0     Lab2a_template_sfun.obj
 0002:000004e8       __real@41ca388d4e800000    00000001800244e8     Lab2a_template_sfun.obj
 0002:000004f0       __real@41bb720b24000000    00000001800244f0     Lab2a_template_sfun.obj
 0002:000004f8       __real@41e9496d87a00000    00000001800244f8     Lab2a_template_sfun.obj
 0002:00000500       __real@41e4fb7f88600000    0000000180024500     Lab2a_template_sfun.obj
 0002:00000508       __real@41e0828afae00000    0000000180024508     Lab2a_template_sfun.obj
 0002:00000510       __real@41eacf4326200000    0000000180024510     c1_Lab2a_template.obj
 0002:00000518       __real@41d75650c4800000    0000000180024518     c1_Lab2a_template.obj
 0002:00000520       __real@41cac3e167000000    0000000180024520     c1_Lab2a_template.obj
 0002:00000528       __real@41d8dcf5af000000    0000000180024528     c1_Lab2a_template.obj
 0002:00000530       __real@4024000000000000    0000000180024530     c1_Lab2a_template.obj
 0002:00000538       __real@3ff0000000000000    0000000180024538     c1_Lab2a_template.obj
 0002:00000540       __real@4000000000000000    0000000180024540     c1_Lab2a_template.obj
 0002:00000548       __real@4010000000000000    0000000180024548     c1_Lab2a_template.obj
 0002:00000550       __real@41e3387ab6600000    0000000180024550     c3_Lab2a_template.obj
 0002:00000558       __real@41ebf6af63600000    0000000180024558     c3_Lab2a_template.obj
 0002:00000560       __real@41ee1c24d7400000    0000000180024560     c3_Lab2a_template.obj
 0002:00000568       __real@41e313f6dc200000    0000000180024568     c3_Lab2a_template.obj
 0002:00000570       __real@0000000000000000    0000000180024570     c3_Lab2a_template.obj
 0002:00000580       DYNAMIC_DIMENSION_DEF      0000000180024580     Lab2a_template_sfun_registry.obj
 0002:000005a0       _ssBadLevel2InputAccessMsg 00000001800245a0     Lab2a_template_sfun_registry.obj
 0002:00000730       _ssBadLevel2DirectFeedMsg  0000000180024730     Lab2a_template_sfun_registry.obj
 0002:00000870       _ssBadLevel2DirectFeedSolutionMsg 0000000180024870     Lab2a_template_sfun_registry.obj
 0002:000008e0       _ssBadLevel2ZeroDirectFeedMsg 00000001800248e0     Lab2a_template_sfun_registry.obj
 0002:00000a20       _ssBadLevel2ZeroDirectFeedMsg2 0000000180024a20     Lab2a_template_sfun_registry.obj
 0002:00000b08       __real@bff0000000000000    0000000180024b08     Lab2a_template_sfun_registry.obj
 0002:00000b10       __real@41602cbca0000000    0000000180024b10     Lab2a_template_sfun_registry.obj
 0002:00000b18       _pDefaultRawDllMain        0000000180024b18     MSVCRT:crtdll.obj
 0002:00000b18       _pRawDllMain               0000000180024b18     MSVCRT:crtdll.obj
 0002:00000b30       ?ProcessDetach@NativeDll@<CrtImplementationDetails>@@0IB 0000000180024b30     MSVCRT:tncleanup.obj
 0002:00000b34       ?ProcessAttach@NativeDll@<CrtImplementationDetails>@@0IB 0000000180024b34     MSVCRT:tncleanup.obj
 0002:00000b38       ?ThreadAttach@NativeDll@<CrtImplementationDetails>@@0IB 0000000180024b38     MSVCRT:tncleanup.obj
 0002:00000b3c       ?ThreadDetach@NativeDll@<CrtImplementationDetails>@@0IB 0000000180024b3c     MSVCRT:tncleanup.obj
 0002:00000b40       ?ProcessVerifier@NativeDll@<CrtImplementationDetails>@@0IB 0000000180024b40     MSVCRT:tncleanup.obj
 0002:00000b48       __rtc_iaa                  0000000180024b48     MSVCRT:_initsect_.obj
 0002:00000b50       __rtc_izz                  0000000180024b50     MSVCRT:_initsect_.obj
 0002:00000b58       __rtc_taa                  0000000180024b58     MSVCRT:_initsect_.obj
 0002:00000b60       __rtc_tzz                  0000000180024b60     MSVCRT:_initsect_.obj
 0002:00001578       __IMPORT_DESCRIPTOR_sf_runtime 0000000180025578     sf_runtime:sf_runtime.dll
 0002:0000158c       __IMPORT_DESCRIPTOR_libmx  000000018002558c     libmx:libmx.dll
 0002:000015a0       __IMPORT_DESCRIPTOR_libmex 00000001800255a0     libmex:libmex.dll
 0002:000015b4       __IMPORT_DESCRIPTOR_libut  00000001800255b4     libut:libut.dll
 0002:000015c8       __IMPORT_DESCRIPTOR_libmwmathutil 00000001800255c8     libmwmathutil:libmwmathutil.dll
 0002:000015dc       __IMPORT_DESCRIPTOR_MSVCR100 00000001800255dc     MSVCRT:MSVCR100.dll
 0002:000015f0       __IMPORT_DESCRIPTOR_KERNEL32 00000001800255f0     kernel32:KERNEL32.dll
 0002:00001604       __NULL_IMPORT_DESCRIPTOR   0000000180025604     sf_runtime:sf_runtime.dll
 0003:000080c0       DYNAMIC_DIMENSION          000000018002f0c0     Lab2a_template_sfun_registry.obj
 0003:00008cc8       __security_cookie          000000018002fcc8     MSVCRT:gs_cookie.obj
 0003:00008cd0       __security_cookie_complement 000000018002fcd0     MSVCRT:gs_cookie.obj
 0003:00008cd8       _fltused                   000000018002fcd8     MSVCRT:dllsupp.obj
 0003:00008ce0       __native_dllmain_reason    000000018002fce0     MSVCRT:natstart.obj
 0003:00008ce4       __native_vcclrit_reason    000000018002fce4     MSVCRT:natstart.obj
 0003:00008e08       sfGlobalDebugInstanceStruct 000000018002fe08     Lab2a_template_sfun_registry.obj
 0003:00009390       ?__type_info_root_node@@3U__type_info_node@@A 0000000180030390     MSVCRT:tncleanup.obj
 0003:000093a0       _Lab2a_templateMachineNumber_ 00000001800303a0     <common>
 0003:000093a4       __native_startup_state     00000001800303a4     <common>
 0003:000093a8       __native_startup_lock      00000001800303a8     <common>
 0003:000093b0       __onexitend                00000001800303b0     <common>
 0003:000093b8       __onexitbegin              00000001800303b8     <common>
 0003:000093c0       __dyn_tls_init_callback    00000001800303c0     <common>

 entry point at        0001:000220d0

 Static symbols

 0001:00001030       c1_info_helper             0000000180002030 f   c1_Lab2a_template.obj
 0001:000040e0       c1_emlrt_marshallOut       00000001800050e0 f   c1_Lab2a_template.obj
 0001:00004170       c1_b_emlrt_marshallOut     0000000180005170 f   c1_Lab2a_template.obj
 0001:00004d00       get_sim_state_c1_Lab2a_template 0000000180005d00 f   c1_Lab2a_template.obj
 0001:00004f70       sf_get_sim_state_info_c1_Lab2a_template 0000000180005f70 f   c1_Lab2a_template.obj
 0001:00005140       set_sim_state_c1_Lab2a_template 0000000180006140 f   c1_Lab2a_template.obj
 0001:00005260       c1_update_debugger_state_c1_Lab2a_template 0000000180006260 f   c1_Lab2a_template.obj
 0001:00005270       c1_emlrt_marshallIn        0000000180006270 f   c1_Lab2a_template.obj
 0001:000052e0       c1_b_emlrt_marshallIn      00000001800062e0 f   c1_Lab2a_template.obj
 0001:00005370       c1_d_emlrt_marshallIn      0000000180006370 f   c1_Lab2a_template.obj
 0001:000053d0       c1_e_emlrt_marshallIn      00000001800063d0 f   c1_Lab2a_template.obj
 0001:000054d0       mdlProcessParameters_c1_Lab2a_template 00000001800064d0 f   c1_Lab2a_template.obj
 0001:000055b0       initialize_params_c1_Lab2a_template 00000001800065b0 f   c1_Lab2a_template.obj
 0001:000055c0       mdlSetWorkWidths_c1_Lab2a_template 00000001800065c0 f   c1_Lab2a_template.obj
 0001:00005b20       sf_get_instance_specialization 0000000180006b20 f   c1_Lab2a_template.obj
 0001:00005b30       mdlStart_c1_Lab2a_template 0000000180006b30 f   c1_Lab2a_template.obj
 0001:00005d60       init_dsm_address_info      0000000180006d60 f   c1_Lab2a_template.obj
 0001:00005d70       chart_debug_initialization 0000000180006d70 f   c1_Lab2a_template.obj
 0001:00006aa0       init_script_number_translation 0000000180007aa0 f   c1_Lab2a_template.obj
 0001:00006ac0       c1_sf_marshallOut          0000000180007ac0 f   c1_Lab2a_template.obj
 0001:00006b70       c1_sf_marshallIn           0000000180007b70 f   c1_Lab2a_template.obj
 0001:00006c10       sf_opaque_initialize_c1_Lab2a_template 0000000180007c10 f   c1_Lab2a_template.obj
 0001:00006c50       initialize_c1_Lab2a_template 0000000180007c50 f   c1_Lab2a_template.obj
 0001:00006ca0       sf_opaque_enable_c1_Lab2a_template 0000000180007ca0 f   c1_Lab2a_template.obj
 0001:00006cc0       enable_c1_Lab2a_template   0000000180007cc0 f   c1_Lab2a_template.obj
 0001:00006cf0       sf_opaque_disable_c1_Lab2a_template 0000000180007cf0 f   c1_Lab2a_template.obj
 0001:00006d10       disable_c1_Lab2a_template  0000000180007d10 f   c1_Lab2a_template.obj
 0001:00006d40       sf_opaque_gateway_c1_Lab2a_template 0000000180007d40 f   c1_Lab2a_template.obj
 0001:00006d60       sf_gateway_c1_Lab2a_template 0000000180007d60 f   c1_Lab2a_template.obj
 0001:000083c0       c1_eml_scalar_eg           00000001800093c0 f   c1_Lab2a_template.obj
 0001:000083d0       sf_opaque_get_sim_state_c1_Lab2a_template 00000001800093d0 f   c1_Lab2a_template.obj
 0001:000083f0       sf_opaque_set_sim_state_c1_Lab2a_template 00000001800093f0 f   c1_Lab2a_template.obj
 0001:00008420       sf_opaque_terminate_c1_Lab2a_template 0000000180009420 f   c1_Lab2a_template.obj
 0001:000084c0       finalize_c1_Lab2a_template 00000001800094c0 f   c1_Lab2a_template.obj
 0001:000084d0       sf_opaque_init_subchart_simstructs 00000001800094d0 f   c1_Lab2a_template.obj
 0001:000084f0       initSimStructsc1_Lab2a_template 00000001800094f0 f   c1_Lab2a_template.obj
 0001:00008500       mdlRTW_c1_Lab2a_template   0000000180009500 f   c1_Lab2a_template.obj
 0001:000085b0       c2_info_helper             00000001800095b0 f   c2_Lab2a_template.obj
 0001:0000b660       c2_emlrt_marshallOut       000000018000c660 f   c2_Lab2a_template.obj
 0001:0000b6f0       c2_b_emlrt_marshallOut     000000018000c6f0 f   c2_Lab2a_template.obj
 0001:0000c280       get_sim_state_c2_Lab2a_template 000000018000d280 f   c2_Lab2a_template.obj
 0001:0000c4f0       sf_get_sim_state_info_c2_Lab2a_template 000000018000d4f0 f   c2_Lab2a_template.obj
 0001:0000c6c0       set_sim_state_c2_Lab2a_template 000000018000d6c0 f   c2_Lab2a_template.obj
 0001:0000c7e0       c2_update_debugger_state_c2_Lab2a_template 000000018000d7e0 f   c2_Lab2a_template.obj
 0001:0000c7f0       c2_emlrt_marshallIn        000000018000d7f0 f   c2_Lab2a_template.obj
 0001:0000c860       c2_b_emlrt_marshallIn      000000018000d860 f   c2_Lab2a_template.obj
 0001:0000c8f0       c2_d_emlrt_marshallIn      000000018000d8f0 f   c2_Lab2a_template.obj
 0001:0000c950       c2_e_emlrt_marshallIn      000000018000d950 f   c2_Lab2a_template.obj
 0001:0000ca50       mdlProcessParameters_c2_Lab2a_template 000000018000da50 f   c2_Lab2a_template.obj
 0001:0000cb30       initialize_params_c2_Lab2a_template 000000018000db30 f   c2_Lab2a_template.obj
 0001:0000cb40       mdlSetWorkWidths_c2_Lab2a_template 000000018000db40 f   c2_Lab2a_template.obj
 0001:0000d0a0       sf_get_instance_specialization 000000018000e0a0 f   c2_Lab2a_template.obj
 0001:0000d0b0       mdlStart_c2_Lab2a_template 000000018000e0b0 f   c2_Lab2a_template.obj
 0001:0000d2e0       init_dsm_address_info      000000018000e2e0 f   c2_Lab2a_template.obj
 0001:0000d2f0       chart_debug_initialization 000000018000e2f0 f   c2_Lab2a_template.obj
 0001:0000e020       init_script_number_translation 000000018000f020 f   c2_Lab2a_template.obj
 0001:0000e040       c2_sf_marshallOut          000000018000f040 f   c2_Lab2a_template.obj
 0001:0000e0f0       c2_sf_marshallIn           000000018000f0f0 f   c2_Lab2a_template.obj
 0001:0000e190       sf_opaque_initialize_c2_Lab2a_template 000000018000f190 f   c2_Lab2a_template.obj
 0001:0000e1d0       initialize_c2_Lab2a_template 000000018000f1d0 f   c2_Lab2a_template.obj
 0001:0000e220       sf_opaque_enable_c2_Lab2a_template 000000018000f220 f   c2_Lab2a_template.obj
 0001:0000e240       enable_c2_Lab2a_template   000000018000f240 f   c2_Lab2a_template.obj
 0001:0000e270       sf_opaque_disable_c2_Lab2a_template 000000018000f270 f   c2_Lab2a_template.obj
 0001:0000e290       disable_c2_Lab2a_template  000000018000f290 f   c2_Lab2a_template.obj
 0001:0000e2c0       sf_opaque_gateway_c2_Lab2a_template 000000018000f2c0 f   c2_Lab2a_template.obj
 0001:0000e2e0       sf_gateway_c2_Lab2a_template 000000018000f2e0 f   c2_Lab2a_template.obj
 0001:0000f940       c2_eml_scalar_eg           0000000180010940 f   c2_Lab2a_template.obj
 0001:0000f950       sf_opaque_get_sim_state_c2_Lab2a_template 0000000180010950 f   c2_Lab2a_template.obj
 0001:0000f970       sf_opaque_set_sim_state_c2_Lab2a_template 0000000180010970 f   c2_Lab2a_template.obj
 0001:0000f9a0       sf_opaque_terminate_c2_Lab2a_template 00000001800109a0 f   c2_Lab2a_template.obj
 0001:0000fa40       finalize_c2_Lab2a_template 0000000180010a40 f   c2_Lab2a_template.obj
 0001:0000fa50       sf_opaque_init_subchart_simstructs 0000000180010a50 f   c2_Lab2a_template.obj
 0001:0000fa70       initSimStructsc2_Lab2a_template 0000000180010a70 f   c2_Lab2a_template.obj
 0001:0000fa80       mdlRTW_c2_Lab2a_template   0000000180010a80 f   c2_Lab2a_template.obj
 0001:0000fb30       c3_info_helper             0000000180010b30 f   c3_Lab2a_template.obj
 0001:00010200       c3_emlrt_marshallOut       0000000180011200 f   c3_Lab2a_template.obj
 0001:00010290       c3_b_emlrt_marshallOut     0000000180011290 f   c3_Lab2a_template.obj
 0001:00010a50       get_sim_state_c3_Lab2a_template 0000000180011a50 f   c3_Lab2a_template.obj
 0001:00010e30       sf_get_sim_state_info_c3_Lab2a_template 0000000180011e30 f   c3_Lab2a_template.obj
 0001:00011000       set_sim_state_c3_Lab2a_template 0000000180012000 f   c3_Lab2a_template.obj
 0001:00011150       c3_update_debugger_state_c3_Lab2a_template 0000000180012150 f   c3_Lab2a_template.obj
 0001:00011160       c3_emlrt_marshallIn        0000000180012160 f   c3_Lab2a_template.obj
 0001:000111d0       c3_b_emlrt_marshallIn      00000001800121d0 f   c3_Lab2a_template.obj
 0001:00011290       c3_c_emlrt_marshallIn      0000000180012290 f   c3_Lab2a_template.obj
 0001:00011300       c3_d_emlrt_marshallIn      0000000180012300 f   c3_Lab2a_template.obj
 0001:000113c0       c3_e_emlrt_marshallIn      00000001800123c0 f   c3_Lab2a_template.obj
 0001:00011430       c3_f_emlrt_marshallIn      0000000180012430 f   c3_Lab2a_template.obj
 0001:000114c0       c3_h_emlrt_marshallIn      00000001800124c0 f   c3_Lab2a_template.obj
 0001:00011520       c3_i_emlrt_marshallIn      0000000180012520 f   c3_Lab2a_template.obj
 0001:00011620       mdlProcessParameters_c3_Lab2a_template 0000000180012620 f   c3_Lab2a_template.obj
 0001:00011700       initialize_params_c3_Lab2a_template 0000000180012700 f   c3_Lab2a_template.obj
 0001:00011710       mdlSetWorkWidths_c3_Lab2a_template 0000000180012710 f   c3_Lab2a_template.obj
 0001:00011c10       sf_get_instance_specialization 0000000180012c10 f   c3_Lab2a_template.obj
 0001:00011c20       mdlStart_c3_Lab2a_template 0000000180012c20 f   c3_Lab2a_template.obj
 0001:00011e50       init_dsm_address_info      0000000180012e50 f   c3_Lab2a_template.obj
 0001:00011e60       chart_debug_initialization 0000000180012e60 f   c3_Lab2a_template.obj
 0001:000128a0       init_script_number_translation 00000001800138a0 f   c3_Lab2a_template.obj
 0001:000128c0       c3_c_sf_marshallOut        00000001800138c0 f   c3_Lab2a_template.obj
 0001:00012970       c3_c_sf_marshallIn         0000000180013970 f   c3_Lab2a_template.obj
 0001:00012a10       sf_opaque_initialize_c3_Lab2a_template 0000000180013a10 f   c3_Lab2a_template.obj
 0001:00012a50       initialize_c3_Lab2a_template 0000000180013a50 f   c3_Lab2a_template.obj
 0001:00012ab0       sf_opaque_enable_c3_Lab2a_template 0000000180013ab0 f   c3_Lab2a_template.obj
 0001:00012ad0       enable_c3_Lab2a_template   0000000180013ad0 f   c3_Lab2a_template.obj
 0001:00012b00       sf_opaque_disable_c3_Lab2a_template 0000000180013b00 f   c3_Lab2a_template.obj
 0001:00012b20       disable_c3_Lab2a_template  0000000180013b20 f   c3_Lab2a_template.obj
 0001:00012b50       sf_opaque_gateway_c3_Lab2a_template 0000000180013b50 f   c3_Lab2a_template.obj
 0001:00012b70       sf_gateway_c3_Lab2a_template 0000000180013b70 f   c3_Lab2a_template.obj
 0001:000139e0       c3_sf_marshallOut          00000001800149e0 f   c3_Lab2a_template.obj
 0001:00013b00       c3_sf_marshallIn           0000000180014b00 f   c3_Lab2a_template.obj
 0001:00013ba0       c3_b_sf_marshallOut        0000000180014ba0 f   c3_Lab2a_template.obj
 0001:00013cc0       c3_b_sf_marshallIn         0000000180014cc0 f   c3_Lab2a_template.obj
 0001:00013d60       sf_opaque_get_sim_state_c3_Lab2a_template 0000000180014d60 f   c3_Lab2a_template.obj
 0001:00013d80       sf_opaque_set_sim_state_c3_Lab2a_template 0000000180014d80 f   c3_Lab2a_template.obj
 0001:00013db0       sf_opaque_terminate_c3_Lab2a_template 0000000180014db0 f   c3_Lab2a_template.obj
 0001:00013e50       finalize_c3_Lab2a_template 0000000180014e50 f   c3_Lab2a_template.obj
 0001:00013e60       sf_opaque_init_subchart_simstructs 0000000180014e60 f   c3_Lab2a_template.obj
 0001:00013e80       initSimStructsc3_Lab2a_template 0000000180014e80 f   c3_Lab2a_template.obj
 0001:00013e90       mdlRTW_c3_Lab2a_template   0000000180014e90 f   c3_Lab2a_template.obj
 0001:00013f40       c4_info_helper             0000000180014f40 f   c4_Lab2a_template.obj
 0001:00016ff0       c4_emlrt_marshallOut       0000000180017ff0 f   c4_Lab2a_template.obj
 0001:00017080       c4_b_emlrt_marshallOut     0000000180018080 f   c4_Lab2a_template.obj
 0001:00017c10       get_sim_state_c4_Lab2a_template 0000000180018c10 f   c4_Lab2a_template.obj
 0001:00017e80       sf_get_sim_state_info_c4_Lab2a_template 0000000180018e80 f   c4_Lab2a_template.obj
 0001:00018050       set_sim_state_c4_Lab2a_template 0000000180019050 f   c4_Lab2a_template.obj
 0001:00018170       c4_update_debugger_state_c4_Lab2a_template 0000000180019170 f   c4_Lab2a_template.obj
 0001:00018180       c4_emlrt_marshallIn        0000000180019180 f   c4_Lab2a_template.obj
 0001:000181f0       c4_b_emlrt_marshallIn      00000001800191f0 f   c4_Lab2a_template.obj
 0001:00018280       c4_d_emlrt_marshallIn      0000000180019280 f   c4_Lab2a_template.obj
 0001:000182e0       c4_e_emlrt_marshallIn      00000001800192e0 f   c4_Lab2a_template.obj
 0001:000183e0       mdlProcessParameters_c4_Lab2a_template 00000001800193e0 f   c4_Lab2a_template.obj
 0001:000184c0       initialize_params_c4_Lab2a_template 00000001800194c0 f   c4_Lab2a_template.obj
 0001:000184d0       mdlSetWorkWidths_c4_Lab2a_template 00000001800194d0 f   c4_Lab2a_template.obj
 0001:00018a30       sf_get_instance_specialization 0000000180019a30 f   c4_Lab2a_template.obj
 0001:00018a40       mdlStart_c4_Lab2a_template 0000000180019a40 f   c4_Lab2a_template.obj
 0001:00018c70       init_dsm_address_info      0000000180019c70 f   c4_Lab2a_template.obj
 0001:00018c80       chart_debug_initialization 0000000180019c80 f   c4_Lab2a_template.obj
 0001:000199b0       init_script_number_translation 000000018001a9b0 f   c4_Lab2a_template.obj
 0001:000199d0       c4_sf_marshallOut          000000018001a9d0 f   c4_Lab2a_template.obj
 0001:00019a80       c4_sf_marshallIn           000000018001aa80 f   c4_Lab2a_template.obj
 0001:00019b20       sf_opaque_initialize_c4_Lab2a_template 000000018001ab20 f   c4_Lab2a_template.obj
 0001:00019b60       initialize_c4_Lab2a_template 000000018001ab60 f   c4_Lab2a_template.obj
 0001:00019bb0       sf_opaque_enable_c4_Lab2a_template 000000018001abb0 f   c4_Lab2a_template.obj
 0001:00019bd0       enable_c4_Lab2a_template   000000018001abd0 f   c4_Lab2a_template.obj
 0001:00019c00       sf_opaque_disable_c4_Lab2a_template 000000018001ac00 f   c4_Lab2a_template.obj
 0001:00019c20       disable_c4_Lab2a_template  000000018001ac20 f   c4_Lab2a_template.obj
 0001:00019c50       sf_opaque_gateway_c4_Lab2a_template 000000018001ac50 f   c4_Lab2a_template.obj
 0001:00019c70       sf_gateway_c4_Lab2a_template 000000018001ac70 f   c4_Lab2a_template.obj
 0001:0001b2c0       c4_eml_scalar_eg           000000018001c2c0 f   c4_Lab2a_template.obj
 0001:0001b2d0       sf_opaque_get_sim_state_c4_Lab2a_template 000000018001c2d0 f   c4_Lab2a_template.obj
 0001:0001b2f0       sf_opaque_set_sim_state_c4_Lab2a_template 000000018001c2f0 f   c4_Lab2a_template.obj
 0001:0001b320       sf_opaque_terminate_c4_Lab2a_template 000000018001c320 f   c4_Lab2a_template.obj
 0001:0001b3c0       finalize_c4_Lab2a_template 000000018001c3c0 f   c4_Lab2a_template.obj
 0001:0001b3d0       sf_opaque_init_subchart_simstructs 000000018001c3d0 f   c4_Lab2a_template.obj
 0001:0001b3f0       initSimStructsc4_Lab2a_template 000000018001c3f0 f   c4_Lab2a_template.obj
 0001:0001b400       mdlRTW_c4_Lab2a_template   000000018001c400 f   c4_Lab2a_template.obj
 0001:0001bdc0       getChartInfoFromSimStruct  000000018001cdc0 f   Lab2a_template_sfun_registry.obj
 0001:0001d460       _ssFatalError              000000018001e460 f   Lab2a_template_sfun_registry.obj
 0001:00020510       ProcessMexSfunctionCmdLineCall 0000000180021510 f   Lab2a_template_sfun_registry.obj
 0001:00020670       sf_debug_api_wrapper       0000000180021670 f   Lab2a_template_sfun_registry.obj
 0001:000206c0       mdlStart                   00000001800216c0 f   Lab2a_template_sfun_registry.obj
 0001:000206f0       mdl_start_processing       00000001800216f0 f   Lab2a_template_sfun_registry.obj
 0001:00020780       mdlTerminate               0000000180021780 f   Lab2a_template_sfun_registry.obj
 0001:000207b0       mdl_terminate_processing   00000001800217b0 f   Lab2a_template_sfun_registry.obj
 0001:00020830       mdlInitializeSampleTimes   0000000180021830 f   Lab2a_template_sfun_registry.obj
 0001:00020860       mdlZeroCrossings           0000000180021860 f   Lab2a_template_sfun_registry.obj
 0001:00020890       mdl_zeroCrossings_processing 0000000180021890 f   Lab2a_template_sfun_registry.obj
 0001:000208d0       mdlDerivatives             00000001800218d0 f   Lab2a_template_sfun_registry.obj
 0001:00020900       mdl_derivatives_processing 0000000180021900 f   Lab2a_template_sfun_registry.obj
 0001:00020950       mdlInitializeConditions    0000000180021950 f   Lab2a_template_sfun_registry.obj
 0001:00020980       mdl_initialize_conditions_processing 0000000180021980 f   Lab2a_template_sfun_registry.obj
 0001:000209d0       mdlEnable                  00000001800219d0 f   Lab2a_template_sfun_registry.obj
 0001:00020a00       mdl_enable_processing      0000000180021a00 f   Lab2a_template_sfun_registry.obj
 0001:00020a40       mdlDisable                 0000000180021a40 f   Lab2a_template_sfun_registry.obj
 0001:00020a70       mdl_disable_processing     0000000180021a70 f   Lab2a_template_sfun_registry.obj
 0001:00020ab0       mdlOutputs                 0000000180021ab0 f   Lab2a_template_sfun_registry.obj
 0001:00020ae0       mdl_outputs_processing     0000000180021ae0 f   Lab2a_template_sfun_registry.obj
 0001:00020bc0       mdl_outputs_continuous_legacy 0000000180021bc0 f   Lab2a_template_sfun_registry.obj
 0001:00020cb0       mdlGetTimeOfNextVarHit     0000000180021cb0 f   Lab2a_template_sfun_registry.obj
 0001:00020d00       _ProcessMexSfunctionCmdLineCall 0000000180021d00 f   Lab2a_template_sfun_registry.obj
 0001:00021450       mdlSetWorkWidths           0000000180022450 f   Lab2a_template_sfun_registry.obj
 0001:00021480       mdlProcessParameters       0000000180022480 f   Lab2a_template_sfun_registry.obj
 0001:000214b0       mdlInitializeSizes         00000001800224b0 f   Lab2a_template_sfun_registry.obj
 0001:000214e0       mdlExtModeExec             00000001800224e0 f   Lab2a_template_sfun_registry.obj
 0001:00021510       mdl_ext_mode_exec_processing 0000000180022510 f   Lab2a_template_sfun_registry.obj
 0001:00021550       mdlRTW                     0000000180022550 f   Lab2a_template_sfun_registry.obj
 0001:00021590       _CreateSimStruct           0000000180022590 f   Lab2a_template_sfun_registry.obj
 0001:00021720       _RegNumInputPortsCB        0000000180022720 f   Lab2a_template_sfun_registry.obj
 0001:000217a0       _RegNumOutputPortsCB       00000001800227a0 f   Lab2a_template_sfun_registry.obj
 0001:00021cd8       pre_c_init                 0000000180022cd8 f   MSVCRT:crtdll.obj
 0001:00021f94       __DllMainCRTStartup        0000000180022f94 f   MSVCRT:crtdll.obj
 0001:00022600       __DllMainCRTStartup$filt$0 0000000180023600 f   MSVCRT:crtdll.obj
 0001:00022630       __DllMainCRTStartup$fin$1  0000000180023630 f   MSVCRT:crtdll.obj
 0001:0002264a       _onexit$fin$0              000000018002364a f   MSVCRT:atonexit.obj
 0001:00022670       _IsNonwritableInCurrentImage$filt$0 0000000180023670 f   MSVCRT:pesect.obj
